; Function Attrs: mustprogress nofree nounwind willreturn memory(read, inaccessiblemem: none) uwtable
define range(i32 0, 2) i32 @ossl_ml_kem_pubkey_cmp(ptr noundef readonly captures(none) %0, ptr noundef readonly captures(none) %1) local_unnamed_addr #8 {
  %3 = getelementptr inbounds nuw i8, ptr %0, i64 64
  %4 = load ptr, ptr %3, align 8, !tbaa !3
  %.not = icmp eq ptr %4, null
  %.phi.trans.insert = getelementptr inbounds nuw i8, ptr %1, i64 64
  %.pre = load ptr, ptr %.phi.trans.insert, align 8, !tbaa !3
  br i1 %.not, label %._crit_edge, label %6

._crit_edge:                                      ; preds = %2
  %5 = icmp ne ptr %.pre, null
  br label %13

6:                                                ; preds = %2
  %.not6 = icmp eq ptr %.pre, null
  br i1 %.not6, label %13, label %7

7:                                                ; preds = %6
  %8 = getelementptr inbounds nuw i8, ptr %0, i64 56
  %9 = load ptr, ptr %8, align 8, !tbaa !32
  %10 = getelementptr inbounds nuw i8, ptr %1, i64 56
  %11 = load ptr, ptr %10, align 8, !tbaa !32
  %bcmp = tail call i32 @bcmp(ptr noundef nonnull dereferenceable(32) %9, ptr noundef nonnull dereferenceable(32) %11, i64 32)
  %12 = icmp eq i32 %bcmp, 0
  br label %17

13:                                               ; preds = %._crit_edge, %6
  %14 = phi i1 [ %5, %._crit_edge ], [ false, %6 ]
  %15 = icmp ne ptr %4, null
  %16 = xor i1 %15, %14
  br label %17

17:                                               ; preds = %13, %7
  %.0.in = phi i1 [ %12, %7 ], [ %16, %13 ]
  %.0 = zext i1 %.0.in to i32
  ret i32 %.0
}